target datalayout = "e-m:e-p270:32:32-p271:32:32-p272:64:64-i64:64-i128:128-f80:128-n8:16:32:64-S128"
target triple = "x86_64-pc-linux-gnu"

%"struct.google::protobuf::internal::ArenaImpl::CacheAlignedLifecycleIdGenerator" = type { %"struct.std::atomic", [56 x i8] }
%"struct.std::atomic" = type { %"struct.std::__atomic_base" }
%"struct.std::__atomic_base" = type { i64 }
%"struct.google::protobuf::internal::ArenaImpl::ThreadCache" = type { i64, i64, ptr, [40 x i8] }
%"class.google::protobuf::internal::ArenaImpl" = type { %"struct.std::atomic.0", %"struct.std::atomic.0", %"struct.std::atomic", i64, ptr }
%"struct.std::atomic.0" = type { %"struct.std::__atomic_base.1" }
%"struct.std::__atomic_base.1" = type { ptr }

@_ZN6google8protobuf8internal9ArenaImpl23lifecycle_id_generator_E = global %"struct.google::protobuf::internal::ArenaImpl::CacheAlignedLifecycleIdGenerator" zeroinitializer, align 64
@_ZN6google8protobuf8internal9ArenaImpl13thread_cache_E = thread_local global %"struct.google::protobuf::internal::ArenaImpl::ThreadCache" { i64 0, i64 -1, ptr null, [40 x i8] undef }, align 64

; Function Attrs: noinline noreturn nounwind uwtable
define linkonce_odr hidden void @__clang_call_terminate(ptr noundef %0) #12 comdat {
  %2 = call ptr @__cxa_begin_catch(ptr %0) #3
  call void @_ZSt9terminatev() #18
  unreachable
}

; Function Attrs: mustprogress nounwind uwtable
define linkonce_odr noundef i32 @_ZStanSt12memory_orderSt23__memory_order_modifier(i32 noundef %0, i32 noundef %1) #5 comdat {
  %3 = alloca i32, align 4
  %4 = alloca i32, align 4
  store i32 %0, ptr %3, align 4, !tbaa !65
  store i32 %1, ptr %4, align 4, !tbaa !135
  %5 = load i32, ptr %3, align 4, !tbaa !65
  %6 = load i32, ptr %4, align 4, !tbaa !135
  %7 = and i32 %5, %6
  ret i32 %7
}

; Function Attrs: alwaysinline mustprogress nounwind uwtable
define linkonce_odr void @_ZNSt13__atomic_baseIPN6google8protobuf8internal11SerialArenaEE5storeES4_St12memory_order(ptr noundef nonnull align 8 dereferenceable(8) %0, ptr noundef %1, i32 noundef %2) #11 comdat align 2 personality ptr @__gxx_personality_v0 {
  %4 = alloca ptr, align 8
  %5 = alloca ptr, align 8
  %6 = alloca i32, align 4
  %7 = alloca i32, align 4
  %8 = alloca ptr, align 8
  store ptr %0, ptr %4, align 8, !tbaa !133
  store ptr %1, ptr %5, align 8, !tbaa !62
  store i32 %2, ptr %6, align 4, !tbaa !65
  %9 = load ptr, ptr %4, align 8
  call void @llvm.lifetime.start.p0(i64 4, ptr %7) #3
  %10 = load i32, ptr %6, align 4, !tbaa !65
  %11 = invoke noundef i32 @_ZStanSt12memory_orderSt23__memory_order_modifier(i32 noundef %10, i32 noundef 65535)
          to label %12 unwind label %32

12:                                               ; preds = %3
  store i32 %11, ptr %7, align 4, !tbaa !65
  br label %13

13:                                               ; preds = %12
  br label %14

14:                                               ; preds = %13
  br label %15

15:                                               ; preds = %14
  br label %16

16:                                               ; preds = %15
  br label %17

17:                                               ; preds = %16
  br label %18

18:                                               ; preds = %17
  br label %19

19:                                               ; preds = %18
  br label %20

20:                                               ; preds = %19
  br label %21

21:                                               ; preds = %20
  %22 = getelementptr inbounds nuw %"struct.std::__atomic_base.1", ptr %9, i32 0, i32 0
  %23 = load i32, ptr %6, align 4, !tbaa !65
  %24 = load ptr, ptr %5, align 8, !tbaa !62
  store ptr %24, ptr %8, align 8, !tbaa !62
  switch i32 %23, label %25 [
    i32 3, label %27
    i32 5, label %29
  ]

25:                                               ; preds = %21
  %26 = load i64, ptr %8, align 8
  store atomic i64 %26, ptr %22 monotonic, align 8
  br label %31

27:                                               ; preds = %21
  %28 = load i64, ptr %8, align 8
  store atomic i64 %28, ptr %22 release, align 8
  br label %31

29:                                               ; preds = %21
  %30 = load i64, ptr %8, align 8
  store atomic i64 %30, ptr %22 seq_cst, align 8
  br label %31

31:                                               ; preds = %29, %27, %25
  call void @llvm.lifetime.end.p0(i64 4, ptr %7) #3
  ret void

32:                                               ; preds = %3
  %33 = landingpad { ptr, i32 }
          catch ptr null
  %34 = extractvalue { ptr, i32 } %33, 0
  call void @__clang_call_terminate(ptr %34) #18
  unreachable
}

; Function Attrs: alwaysinline mustprogress nounwind uwtable
define linkonce_odr void @_ZNSt13__atomic_baseImE5storeEmSt12memory_order(ptr noundef nonnull align 8 dereferenceable(8) %0, i64 noundef %1, i32 noundef %2) #11 comdat align 2 {
  %4 = alloca ptr, align 8
  %5 = alloca i64, align 8
  %6 = alloca i32, align 4
  %7 = alloca i32, align 4
  %8 = alloca i64, align 8
  store ptr %0, ptr %4, align 8, !tbaa !63
  store i64 %1, ptr %5, align 8, !tbaa !7
  store i32 %2, ptr %6, align 4, !tbaa !65
  %9 = load ptr, ptr %4, align 8
  call void @llvm.lifetime.start.p0(i64 4, ptr %7) #3
  %10 = load i32, ptr %6, align 4, !tbaa !65
  %11 = call noundef i32 @_ZStanSt12memory_orderSt23__memory_order_modifier(i32 noundef %10, i32 noundef 65535)
  store i32 %11, ptr %7, align 4, !tbaa !65
  br label %12

12:                                               ; preds = %3
  br label %13

13:                                               ; preds = %12
  br label %14

14:                                               ; preds = %13
  br label %15

15:                                               ; preds = %14
  br label %16

16:                                               ; preds = %15
  br label %17

17:                                               ; preds = %16
  br label %18

18:                                               ; preds = %17
  br label %19

19:                                               ; preds = %18
  br label %20

20:                                               ; preds = %19
  %21 = getelementptr inbounds nuw %"struct.std::__atomic_base", ptr %9, i32 0, i32 0
  %22 = load i32, ptr %6, align 4, !tbaa !65
  %23 = load i64, ptr %5, align 8, !tbaa !7
  store i64 %23, ptr %8, align 8, !tbaa !7
  switch i32 %22, label %24 [
    i32 3, label %26
    i32 5, label %28
  ]

24:                                               ; preds = %20
  %25 = load i64, ptr %8, align 8
  store atomic i64 %25, ptr %21 monotonic, align 8
  br label %30

26:                                               ; preds = %20
  %27 = load i64, ptr %8, align 8
  store atomic i64 %27, ptr %21 release, align 8
  br label %30

28:                                               ; preds = %20
  %29 = load i64, ptr %8, align 8
  store atomic i64 %29, ptr %21 seq_cst, align 8
  br label %30

30:                                               ; preds = %28, %26, %24
  call void @llvm.lifetime.end.p0(i64 4, ptr %7) #3
  ret void
}

; Function Attrs: mustprogress nounwind uwtable
define linkonce_odr void @_ZNSt6atomicIPN6google8protobuf8internal11SerialArenaEE5storeES4_St12memory_order(ptr noundef nonnull align 8 dereferenceable(8) %0, ptr noundef %1, i32 noundef %2) #5 comdat align 2 {
  %4 = alloca ptr, align 8
  %5 = alloca ptr, align 8
  %6 = alloca i32, align 4
  store ptr %0, ptr %4, align 8, !tbaa !67
  store ptr %1, ptr %5, align 8, !tbaa !62
  store i32 %2, ptr %6, align 4, !tbaa !65
  %7 = load ptr, ptr %4, align 8
  %8 = getelementptr inbounds nuw %"struct.std::atomic.0", ptr %7, i32 0, i32 0
  %9 = load ptr, ptr %5, align 8, !tbaa !62
  %10 = load i32, ptr %6, align 4, !tbaa !65
  call void @_ZNSt13__atomic_baseIPN6google8protobuf8internal11SerialArenaEE5storeES4_St12memory_order(ptr noundef nonnull align 8 dereferenceable(8) %8, ptr noundef %9, i32 noundef %10) #3
  ret void
}

; Function Attrs: alwaysinline mustprogress nounwind uwtable
define linkonce_odr noundef i64 @_ZNSt13__atomic_baseImE9fetch_addEmSt12memory_order(ptr noundef nonnull align 8 dereferenceable(8) %0, i64 noundef %1, i32 noundef %2) #11 comdat align 2 {
  %4 = alloca ptr, align 8
  %5 = alloca i64, align 8
  %6 = alloca i32, align 4
  %7 = alloca i64, align 8
  %8 = alloca i64, align 8
  store ptr %0, ptr %4, align 8, !tbaa !63
  store i64 %1, ptr %5, align 8, !tbaa !7
  store i32 %2, ptr %6, align 4, !tbaa !65
  %9 = load ptr, ptr %4, align 8
  %10 = getelementptr inbounds nuw %"struct.std::__atomic_base", ptr %9, i32 0, i32 0
  %11 = load i32, ptr %6, align 4, !tbaa !65
  %12 = load i64, ptr %5, align 8, !tbaa !7
  store i64 %12, ptr %7, align 8, !tbaa !7
  switch i32 %11, label %13 [
    i32 1, label %16
    i32 2, label %16
    i32 3, label %19
    i32 4, label %22
    i32 5, label %25
  ]

13:                                               ; preds = %3
  %14 = load i64, ptr %7, align 8
  %15 = atomicrmw add ptr %10, i64 %14 monotonic, align 8
  store i64 %15, ptr %8, align 8
  br label %28

16:                                               ; preds = %3, %3
  %17 = load i64, ptr %7, align 8
  %18 = atomicrmw add ptr %10, i64 %17 acquire, align 8
  store i64 %18, ptr %8, align 8
  br label %28

19:                                               ; preds = %3
  %20 = load i64, ptr %7, align 8
  %21 = atomicrmw add ptr %10, i64 %20 release, align 8
  store i64 %21, ptr %8, align 8
  br label %28

22:                                               ; preds = %3
  %23 = load i64, ptr %7, align 8
  %24 = atomicrmw add ptr %10, i64 %23 acq_rel, align 8
  store i64 %24, ptr %8, align 8
  br label %28

25:                                               ; preds = %3
  %26 = load i64, ptr %7, align 8
  %27 = atomicrmw add ptr %10, i64 %26 seq_cst, align 8
  store i64 %27, ptr %8, align 8
  br label %28

28:                                               ; preds = %25, %22, %19, %16, %13
  %29 = load i64, ptr %8, align 8, !tbaa !7
  ret i64 %29
}

; Function Attrs: mustprogress nounwind uwtable
define linkonce_odr noundef nonnull align 64 dereferenceable(64) ptr @_ZN6google8protobuf8internal9ArenaImpl12thread_cacheEv() #5 comdat align 2 {
  %1 = call align 64 ptr @llvm.threadlocal.address.p0(ptr align 64 @_ZN6google8protobuf8internal9ArenaImpl13thread_cache_E)
  ret ptr %1
}

; Function Attrs: mustprogress uwtable
define void @_ZN6google8protobuf8internal9ArenaImpl4InitEb(ptr noundef nonnull align 8 dereferenceable(40) %0, i1 noundef zeroext %1) #7 align 2 {
  %3 = alloca ptr, align 8
  %4 = alloca i8, align 1
  %5 = alloca ptr, align 8
  %6 = alloca i64, align 8
  %7 = alloca i64, align 8
  store ptr %0, ptr %3, align 8, !tbaa !9
  %8 = zext i1 %1 to i8
  store i8 %8, ptr %4, align 1, !tbaa !23
  %9 = load ptr, ptr %3, align 8
  call void @llvm.lifetime.start.p0(i64 8, ptr %5) #3
  %10 = call noundef nonnull align 64 dereferenceable(64) ptr @_ZN6google8protobuf8internal9ArenaImpl12thread_cacheEv()
  store ptr %10, ptr %5, align 8, !tbaa !57
  call void @llvm.lifetime.start.p0(i64 8, ptr %6) #3
  %11 = load ptr, ptr %5, align 8, !tbaa !57
  %12 = getelementptr inbounds nuw %"struct.google::protobuf::internal::ArenaImpl::ThreadCache", ptr %11, i32 0, i32 0
  %13 = load i64, ptr %12, align 64, !tbaa !59
  store i64 %13, ptr %6, align 8, !tbaa !7
  call void @llvm.lifetime.start.p0(i64 8, ptr %7) #3
  store i64 512, ptr %7, align 8, !tbaa !7
  %14 = load i64, ptr %6, align 8, !tbaa !7
  %15 = and i64 %14, 511
  %16 = icmp eq i64 %15, 0
  %17 = zext i1 %16 to i64
  %18 = call i64 @llvm.expect.i64(i64 %17, i64 0)
  %19 = icmp ne i64 %18, 0
  br i1 %19, label %20, label %22

20:                                               ; preds = %2
  %21 = call noundef i64 @_ZNSt13__atomic_baseImE9fetch_addEmSt12memory_order(ptr noundef nonnull align 8 dereferenceable(8) @_ZN6google8protobuf8internal9ArenaImpl23lifecycle_id_generator_E, i64 noundef 512, i32 noundef 0) #3
  store i64 %21, ptr %6, align 8, !tbaa !7
  br label %22

22:                                               ; preds = %20, %2
  %23 = load i64, ptr %6, align 8, !tbaa !7
  %24 = add i64 %23, 2
  %25 = load ptr, ptr %5, align 8, !tbaa !57
  %26 = getelementptr inbounds nuw %"struct.google::protobuf::internal::ArenaImpl::ThreadCache", ptr %25, i32 0, i32 0
  store i64 %24, ptr %26, align 64, !tbaa !59
  %27 = load i64, ptr %6, align 8, !tbaa !7
  %28 = load i8, ptr %4, align 1, !tbaa !23, !range !36, !noundef !37
  %29 = trunc i8 %28 to i1
  %30 = select i1 %29, i32 1, i32 0
  %31 = sext i32 %30 to i64
  %32 = or i64 %27, %31
  %33 = getelementptr inbounds nuw %"class.google::protobuf::internal::ArenaImpl", ptr %9, i32 0, i32 3
  store i64 %32, ptr %33, align 8, !tbaa !61
  %34 = getelementptr inbounds nuw %"class.google::protobuf::internal::ArenaImpl", ptr %9, i32 0, i32 1
  call void @_ZNSt6atomicIPN6google8protobuf8internal11SerialArenaEE5storeES4_St12memory_order(ptr noundef nonnull align 8 dereferenceable(8) %34, ptr noundef null, i32 noundef 0) #3
  %35 = getelementptr inbounds nuw %"class.google::protobuf::internal::ArenaImpl", ptr %9, i32 0, i32 0
  call void @_ZNSt6atomicIPN6google8protobuf8internal11SerialArenaEE5storeES4_St12memory_order(ptr noundef nonnull align 8 dereferenceable(8) %35, ptr noundef null, i32 noundef 0) #3
  %36 = getelementptr inbounds nuw %"class.google::protobuf::internal::ArenaImpl", ptr %9, i32 0, i32 2
  call void @_ZNSt13__atomic_baseImE5storeEmSt12memory_order(ptr noundef nonnull align 8 dereferenceable(8) %36, i64 noundef 0, i32 noundef 0) #3
  call void @llvm.lifetime.end.p0(i64 8, ptr %7) #3
  call void @llvm.lifetime.end.p0(i64 8, ptr %6) #3
  call void @llvm.lifetime.end.p0(i64 8, ptr %5) #3
  ret void
}