; Function Attrs: mustprogress nofree norecurse nounwind willreturn memory(readwrite, inaccessiblemem: none) uwtable
define void @_ZN6google8protobuf8internal9ArenaImpl4InitEb(ptr noundef nonnull writeonly align 8 captures(none) dereferenceable(40) initializes((24, 32)) %0, i1 noundef zeroext %1) local_unnamed_addr #8 align 2 personality ptr @__gxx_personality_v0 {
  %3 = tail call noundef nonnull align 64 dereferenceable(64) ptr @llvm.threadlocal.address.p0(ptr align 64 @_ZN6google8protobuf8internal9ArenaImpl13thread_cache_E)
  %4 = load i64, ptr %3, align 64, !tbaa !37
  %5 = and i64 %4, 511
  %6 = icmp eq i64 %5, 0
  br i1 %6, label %7, label %9, !prof !39

7:                                                ; preds = %2
  %8 = atomicrmw add ptr @_ZN6google8protobuf8internal9ArenaImpl23lifecycle_id_generator_E, i64 512 monotonic, align 8
  br label %9

9:                                                ; preds = %7, %2
  %.0 = phi i64 [ %8, %7 ], [ %4, %2 ]
  %10 = add i64 %.0, 2
  store i64 %10, ptr %3, align 64, !tbaa !37
  %11 = zext i1 %1 to i64
  %12 = or i64 %.0, %11
  %13 = getelementptr inbounds nuw i8, ptr %0, i64 24
  store i64 %12, ptr %13, align 8, !tbaa !40
  %14 = getelementptr inbounds nuw i8, ptr %0, i64 8
  store atomic i64 0, ptr %14 monotonic, align 8
  store atomic i64 0, ptr %0 monotonic, align 8
  %15 = getelementptr inbounds nuw i8, ptr %0, i64 16
  store atomic i64 0, ptr %15 monotonic, align 8
  ret void
}